; Function Attrs: mustprogress norecurse uwtable
define internal fastcc noundef i32 @_ZL10DoShutdownP6ssl_st(ptr noundef %0) unnamed_addr #0 {
  %2 = load i32, ptr @_ZL14g_config_index, align 4, !tbaa !6
  %3 = tail call noundef ptr @SSL_get_ex_data(ptr noundef %0, i32 noundef %2)
  %4 = getelementptr inbounds nuw i8, ptr %3, i64 280
  br label %5

5:                                                ; preds = %9, %1
  %6 = tail call i32 @SSL_shutdown(ptr noundef %0)
  %7 = load i8, ptr %4, align 8, !tbaa !57, !range !39, !noundef !40
  %8 = trunc nuw i8 %7 to i1
  br i1 %8, label %9, label %.critedge

9:                                                ; preds = %5
  %10 = tail call fastcc noundef zeroext i1 @_ZL10RetryAsyncP6ssl_sti(ptr noundef %0, i32 noundef %6)
  br i1 %10, label %5, label %.critedge, !llvm.loop !200

.critedge:                                        ; preds = %5, %9
  ret i32 %6
}